#include <math.h>
#include <stdio.h>
#include <stdlib.h>
#include <string.h>

int main(){
	int n,i,j,e;
	char jianji[256]={0};
	scanf("%d",&n);
	for(i=0;i<n;i++){
		scanf("%s",jianji);
		e=strlen(jianji);
		for(j=0;j<e;j++){
			if(jianji[j]=='A'){
				printf("T");
			}else if(jianji[j]=='G'){
				printf("C");
			}else if(jianji[j]=='C'){
				printf("G");
			}else{
				printf("A");
			}
		}
		printf("\n");
	}
	return 0;
}

